
boot.elf:     file format elf32-littleriscv


Disassembly of section .text:

10000000 <_start>:
10000000:	00001137          	lui	sp,0x1
10000004:	80010113          	addi	sp,sp,-2048 # 800 <STACK_SIZE>
10000008:	09c000ef          	jal	ra,100000a4 <main>
1000000c:	0000                	.2byte	0x0
1000000e:	0000                	.2byte	0x0
10000010:	0000                	.2byte	0x0
10000012:	0000                	.2byte	0x0

10000014 <time_ms>:
10000014:	ff0007b7          	lui	a5,0xff000
10000018:	1007a503          	lw	a0,256(a5) # ff000100 <_etext+0xeeffff6c>
1000001c:	000187b7          	lui	a5,0x18
10000020:	6a078793          	addi	a5,a5,1696 # 186a0 <STACK_SIZE+0x17ea0>
10000024:	02f55533          	divu	a0,a0,a5
10000028:	00008067          	ret

1000002c <Sleep>:
1000002c:	ff0007b7          	lui	a5,0xff000
10000030:	1007a683          	lw	a3,256(a5) # ff000100 <_etext+0xeeffff6c>
10000034:	00018737          	lui	a4,0x18
10000038:	6a070713          	addi	a4,a4,1696 # 186a0 <STACK_SIZE+0x17ea0>
1000003c:	02e6d6b3          	divu	a3,a3,a4
10000040:	ff000637          	lui	a2,0xff000
10000044:	10062783          	lw	a5,256(a2) # ff000100 <_etext+0xeeffff6c>
10000048:	02e7d7b3          	divu	a5,a5,a4
1000004c:	40d787b3          	sub	a5,a5,a3
10000050:	fea7eae3          	bltu	a5,a0,10000044 <Sleep+0x18>
10000054:	00008067          	ret

10000058 <SetLed>:
10000058:	ff0007b7          	lui	a5,0xff000
1000005c:	00a7a023          	sw	a0,0(a5) # ff000000 <_etext+0xeefffe6c>
10000060:	00008067          	ret

10000064 <write_serial_byte>:
10000064:	ff000737          	lui	a4,0xff000
10000068:	20872783          	lw	a5,520(a4) # ff000208 <_etext+0xef000074>
1000006c:	0087f793          	andi	a5,a5,8
10000070:	fe079ce3          	bnez	a5,10000068 <write_serial_byte+0x4>
10000074:	20a72623          	sw	a0,524(a4)
10000078:	00008067          	ret

1000007c <str_len>:
1000007c:	00054783          	lbu	a5,0(a0)
10000080:	00050713          	mv	a4,a0
10000084:	00000513          	li	a0,0
10000088:	00078c63          	beqz	a5,100000a0 <str_len+0x24>
1000008c:	00150513          	addi	a0,a0,1
10000090:	00a707b3          	add	a5,a4,a0
10000094:	0007c783          	lbu	a5,0(a5)
10000098:	fe079ae3          	bnez	a5,1000008c <str_len+0x10>
1000009c:	00008067          	ret
100000a0:	00008067          	ret

100000a4 <main>:
100000a4:	ff0007b7          	lui	a5,0xff000
100000a8:	00f00713          	li	a4,15
100000ac:	00e7a023          	sw	a4,0(a5) # ff000000 <_etext+0xeefffe6c>
100000b0:	00000713          	li	a4,0
100000b4:	01000793          	li	a5,16
100000b8:	02f77e63          	bgeu	a4,a5,100000f4 <main+0x50>
100000bc:	fff78793          	addi	a5,a5,-1
100000c0:	40e787b3          	sub	a5,a5,a4
100000c4:	ffc7f793          	andi	a5,a5,-4
100000c8:	10000737          	lui	a4,0x10000
100000cc:	19470613          	addi	a2,a4,404 # 10000194 <_etext>
100000d0:	00478793          	addi	a5,a5,4
100000d4:	00c787b3          	add	a5,a5,a2
100000d8:	00000693          	li	a3,0
100000dc:	19470713          	addi	a4,a4,404
100000e0:	00072603          	lw	a2,0(a4)
100000e4:	00470713          	addi	a4,a4,4
100000e8:	00468693          	addi	a3,a3,4
100000ec:	fec6ae23          	sw	a2,-4(a3)
100000f0:	fef718e3          	bne	a4,a5,100000e0 <main+0x3c>
100000f4:	000185b7          	lui	a1,0x18
100000f8:	00000893          	li	a7,0
100000fc:	00200e13          	li	t3,2
10000100:	00000313          	li	t1,0
10000104:	ff000737          	lui	a4,0xff000
10000108:	6a058593          	addi	a1,a1,1696 # 186a0 <STACK_SIZE+0x17ea0>
1000010c:	1f300513          	li	a0,499
10000110:	00072023          	sw	zero,0(a4) # ff000000 <_etext+0xeefffe6c>
10000114:	10072683          	lw	a3,256(a4)
10000118:	02b6d6b3          	divu	a3,a3,a1
1000011c:	10072783          	lw	a5,256(a4)
10000120:	02b7d7b3          	divu	a5,a5,a1
10000124:	40d787b3          	sub	a5,a5,a3
10000128:	fef57ae3          	bgeu	a0,a5,1000011c <main+0x78>
1000012c:	000e0793          	mv	a5,t3
10000130:	fff7c603          	lbu	a2,-1(a5)
10000134:	00078693          	mv	a3,a5
10000138:	00178793          	addi	a5,a5,1
1000013c:	fe061ae3          	bnez	a2,10000130 <main+0x8c>
10000140:	40668633          	sub	a2,a3,t1
10000144:	fff60613          	addi	a2,a2,-1
10000148:	00030693          	mv	a3,t1
1000014c:	02060263          	beqz	a2,10000170 <main+0xcc>
10000150:	00660633          	add	a2,a2,t1
10000154:	0006c803          	lbu	a6,0(a3)
10000158:	20872783          	lw	a5,520(a4)
1000015c:	0087f793          	andi	a5,a5,8
10000160:	fe079ce3          	bnez	a5,10000158 <main+0xb4>
10000164:	21072623          	sw	a6,524(a4)
10000168:	00168693          	addi	a3,a3,1
1000016c:	fed614e3          	bne	a2,a3,10000154 <main+0xb0>
10000170:	01172023          	sw	a7,0(a4)
10000174:	10072683          	lw	a3,256(a4)
10000178:	00188893          	addi	a7,a7,1
1000017c:	02b6d6b3          	divu	a3,a3,a1
10000180:	10072783          	lw	a5,256(a4)
10000184:	02b7d7b3          	divu	a5,a5,a1
10000188:	40d787b3          	sub	a5,a5,a3
1000018c:	fef57ae3          	bgeu	a0,a5,10000180 <main+0xdc>
10000190:	f81ff06f          	j	10000110 <main+0x6c>

Disassembly of section .rodata:

00000000 <_srodata>:
   0:	6548                	.2byte	0x6548
   2:	6c6c                	.2byte	0x6c6c
   4:	57202c6f          	jal	s8,2576 <STACK_SIZE+0x1d76>
   8:	646c726f          	jal	tp,c764e <STACK_SIZE+0xc6e4e>
   c:	0a21                	.2byte	0xa21
   e:	0000                	.2byte	0x0
